target datalayout = "e-m:e-p270:32:32-p271:32:32-p272:64:64-i64:64-i128:128-f80:128-n8:16:32:64-S128"
target triple = "x86_64-pc-linux-gnu"

%"class.marisa::grimoire::io::Reader" = type <{ ptr, i32, [4 x i8], ptr, i8, [7 x i8] }>

; Function Attrs: mustprogress nounwind uwtable
define noundef zeroext i1 @_ZNK6marisa8grimoire2io6Reader7is_openEv(ptr noundef nonnull align 8 dereferenceable(25) %0) #4 align 2 {
  %2 = alloca ptr, align 8
  store ptr %0, ptr %2, align 8, !tbaa !3
  %3 = load ptr, ptr %2, align 8
  %4 = getelementptr inbounds nuw %"class.marisa::grimoire::io::Reader", ptr %3, i32 0, i32 0
  %5 = load ptr, ptr %4, align 8, !tbaa !8
  %6 = icmp ne ptr %5, null
  br i1 %6, label %15, label %7

7:                                                ; preds = %1
  %8 = getelementptr inbounds nuw %"class.marisa::grimoire::io::Reader", ptr %3, i32 0, i32 1
  %9 = load i32, ptr %8, align 8, !tbaa !14
  %10 = icmp ne i32 %9, -1
  br i1 %10, label %15, label %11

11:                                               ; preds = %7
  %12 = getelementptr inbounds nuw %"class.marisa::grimoire::io::Reader", ptr %3, i32 0, i32 3
  %13 = load ptr, ptr %12, align 8, !tbaa !15
  %14 = icmp ne ptr %13, null
  br label %15

15:                                               ; preds = %11, %7, %1
  %16 = phi i1 [ true, %7 ], [ true, %1 ], [ %14, %11 ]
  ret i1 %16
}